; Function Attrs: mustprogress uwtable
define internal void @_ZN11opencv_test12_GLOBAL__N_139gtest_Perf_Barcode_multi_EvalGenerator_B5cxx11Ev(ptr dead_on_unwind noalias writable sret(%"class.testing::internal::ParamGenerator") align 8 %0) #3 {
  %2 = alloca %"class.testing::internal::CartesianProductHolder2", align 8
  store ptr @.str.57, ptr %2, align 8, !alias.scope !7
  %3 = getelementptr inbounds i8, ptr %2, i64 8
  store i64 11690900981753, ptr %3, align 8, !alias.scope !7
  %4 = getelementptr inbounds i8, ptr %2, i64 16
  store i64 7795365643601, ptr %4, align 8, !alias.scope !7
  %5 = getelementptr inbounds i8, ptr %2, i64 24
  store i64 3895535338152, ptr %5, align 8, !alias.scope !7
  call void @_ZNK7testing8internal23CartesianProductHolder2INS0_11ValueArray1IPKcEENS0_11ValueArray3IN2cv5Size_IiEES9_S9_EEEcvNS0_14ParamGeneratorISt5tupleIJT_T0_EEEEINSt7__cxx1112basic_stringIcSt11char_traitsIcESaIcEEES9_EEv(ptr dead_on_unwind writable sret(%"class.testing::internal::ParamGenerator") align 8 %0, ptr noundef nonnull align 8 dereferenceable(32) %2)
  ret void
}